target datalayout = "e-m:e-p270:32:32-p271:32:32-p272:64:64-i64:64-i128:128-f80:128-n8:16:32:64-S128"
target triple = "x86_64-pc-linux-gnu"

%struct.GVJ_s = type { ptr, ptr, ptr, ptr, ptr, ptr, i32, ptr, ptr, ptr, ptr, i64, i64, ptr, i32, %struct.gvplugin_active_render_s, %struct.gvplugin_active_device_s, %struct.gvplugin_active_loadimage_t, ptr, %struct.pointf_s, i8, ptr, i32, ptr, i8, ptr, i32, i32, i32, %struct.point, %struct.point, %struct.point, %struct.point, %struct.point, i32, %struct.boxf, %struct.pointf_s, %struct.boxf, %struct.boxf, %struct.pointf_s, %struct.pointf_s, double, i32, %struct.pointf_s, %struct.boxf, %struct.pointf_s, %struct.pointf_s, i32, i32, %struct.box, %struct.box, %struct.pointf_s, %struct.pointf_s, %struct.pointf_s, i8, i8, i8, i8, i8, i8, %struct.pointf_s, %struct.pointf_s, ptr, ptr, ptr, ptr, ptr, ptr, i64, ptr }
%struct.gvplugin_active_render_s = type { ptr, i32, ptr, ptr }
%struct.gvplugin_active_device_s = type { ptr, i32, ptr, ptr }
%struct.gvplugin_active_loadimage_t = type { ptr, i32, ptr }
%struct.point = type { i32, i32 }
%struct.boxf = type { %struct.pointf_s, %struct.pointf_s }
%struct.box = type { %struct.point, %struct.point }
%struct.pointf_s = type { double, double }
%struct.color_s = type { %union.anon, i32 }
%union.anon = type { [4 x double] }
%struct.gvrender_engine_s = type { ptr, ptr, ptr, ptr, ptr, ptr, ptr, ptr, ptr, ptr, ptr, ptr, ptr, ptr, ptr, ptr, ptr, ptr, ptr, ptr, ptr, ptr, ptr, ptr, ptr, ptr, ptr, ptr, ptr, ptr }
%struct.obj_state_s = type { ptr, i32, %union.anon.0, i32, %struct.color_s, %struct.color_s, %struct.color_s, i32, double, i32, i32, double, ptr, double, double, double, ptr, ptr, ptr, ptr, ptr, ptr, ptr, ptr, ptr, ptr, ptr, ptr, ptr, ptr, ptr, ptr, ptr, i16, i32, i64, ptr, i64, ptr, ptr, i32, ptr, i32, ptr }
%union.anon.0 = type { ptr }

; Function Attrs: nounwind uwtable
define void @gvrender_set_gradient_vals(ptr noundef %0, ptr noundef %1, i32 noundef %2, double noundef %3) #0 {
  %5 = alloca ptr, align 8
  %6 = alloca ptr, align 8
  %7 = alloca i32, align 4
  %8 = alloca double, align 8
  %9 = alloca ptr, align 8
  %10 = alloca ptr, align 8
  store ptr %0, ptr %5, align 8, !tbaa !3
  store ptr %1, ptr %6, align 8, !tbaa !8
  store i32 %2, ptr %7, align 4, !tbaa !59
  store double %3, ptr %8, align 8, !tbaa !77
  call void @llvm.lifetime.start.p0(i64 8, ptr %9) #15
  %11 = load ptr, ptr %5, align 8, !tbaa !3
  %12 = getelementptr inbounds nuw %struct.GVJ_s, ptr %11, i32 0, i32 15
  %13 = getelementptr inbounds nuw %struct.gvplugin_active_render_s, ptr %12, i32 0, i32 0
  %14 = load ptr, ptr %13, align 8, !tbaa !51
  store ptr %14, ptr %9, align 8, !tbaa !58
  call void @llvm.lifetime.start.p0(i64 8, ptr %10) #15
  %15 = load ptr, ptr %5, align 8, !tbaa !3
  %16 = getelementptr inbounds nuw %struct.GVJ_s, ptr %15, i32 0, i32 4
  %17 = load ptr, ptr %16, align 8, !tbaa !116
  %18 = getelementptr inbounds nuw %struct.obj_state_s, ptr %17, i32 0, i32 6
  store ptr %18, ptr %10, align 8, !tbaa !121
  %19 = load ptr, ptr %9, align 8, !tbaa !58
  %20 = icmp ne ptr %19, null
  br i1 %20, label %21, label %39

21:                                               ; preds = %4
  %22 = load ptr, ptr %5, align 8, !tbaa !3
  %23 = getelementptr inbounds nuw %struct.GVJ_s, ptr %22, i32 0, i32 15
  %24 = getelementptr inbounds nuw %struct.gvplugin_active_render_s, ptr %23, i32 0, i32 2
  %25 = load ptr, ptr %24, align 8, !tbaa !52
  %26 = load ptr, ptr %6, align 8, !tbaa !8
  %27 = load ptr, ptr %10, align 8, !tbaa !121
  call void @gvrender_resolve_color(ptr noundef %25, ptr noundef %26, ptr noundef %27)
  %28 = load ptr, ptr %9, align 8, !tbaa !58
  %29 = getelementptr inbounds nuw %struct.gvrender_engine_s, ptr %28, i32 0, i32 23
  %30 = load ptr, ptr %29, align 8, !tbaa !123
  %31 = icmp ne ptr %30, null
  br i1 %31, label %32, label %38

32:                                               ; preds = %21
  %33 = load ptr, ptr %9, align 8, !tbaa !58
  %34 = getelementptr inbounds nuw %struct.gvrender_engine_s, ptr %33, i32 0, i32 23
  %35 = load ptr, ptr %34, align 8, !tbaa !123
  %36 = load ptr, ptr %5, align 8, !tbaa !3
  %37 = load ptr, ptr %10, align 8, !tbaa !121
  call void %35(ptr noundef %36, ptr noundef %37)
  br label %38

38:                                               ; preds = %32, %21
  br label %39

39:                                               ; preds = %38, %4
  %40 = load i32, ptr %7, align 4, !tbaa !59
  %41 = load ptr, ptr %5, align 8, !tbaa !3
  %42 = getelementptr inbounds nuw %struct.GVJ_s, ptr %41, i32 0, i32 4
  %43 = load ptr, ptr %42, align 8, !tbaa !116
  %44 = getelementptr inbounds nuw %struct.obj_state_s, ptr %43, i32 0, i32 7
  store i32 %40, ptr %44, align 8, !tbaa !128
  %45 = load double, ptr %8, align 8, !tbaa !77
  %46 = load ptr, ptr %5, align 8, !tbaa !3
  %47 = getelementptr inbounds nuw %struct.GVJ_s, ptr %46, i32 0, i32 4
  %48 = load ptr, ptr %47, align 8, !tbaa !116
  %49 = getelementptr inbounds nuw %struct.obj_state_s, ptr %48, i32 0, i32 8
  store double %45, ptr %49, align 8, !tbaa !129
  call void @llvm.lifetime.end.p0(i64 8, ptr %10) #15
  call void @llvm.lifetime.end.p0(i64 8, ptr %9) #15
  ret void
}