; Function Attrs: nounwind uwtable
define void @gvrender_set_gradient_vals(ptr noundef %0, ptr noundef %1, i32 noundef %2, double noundef %3) local_unnamed_addr #0 {
  %5 = getelementptr inbounds nuw i8, ptr %0, i64 120
  %6 = load ptr, ptr %5, align 8, !tbaa !47
  %7 = getelementptr inbounds nuw i8, ptr %0, i64 32
  %8 = load ptr, ptr %7, align 8, !tbaa !107
  %9 = getelementptr inbounds nuw i8, ptr %8, i64 112
  %.not = icmp eq ptr %6, null
  br i1 %.not, label %16, label %10

10:                                               ; preds = %4
  %11 = getelementptr inbounds nuw i8, ptr %0, i64 136
  %12 = load ptr, ptr %11, align 8, !tbaa !48
  tail call fastcc void @gvrender_resolve_color(ptr noundef %12, ptr noundef %1, ptr noundef nonnull %9)
  %13 = getelementptr inbounds nuw i8, ptr %6, i64 184
  %14 = load ptr, ptr %13, align 8, !tbaa !113
  %.not14 = icmp eq ptr %14, null
  br i1 %.not14, label %16, label %15

15:                                               ; preds = %10
  tail call void %14(ptr noundef nonnull %0, ptr noundef nonnull %9) #22
  br label %16

16:                                               ; preds = %10, %15, %4
  %17 = load ptr, ptr %7, align 8, !tbaa !107
  %18 = getelementptr inbounds nuw i8, ptr %17, i64 152
  store i32 %2, ptr %18, align 8, !tbaa !119
  %19 = getelementptr inbounds nuw i8, ptr %17, i64 160
  store double %3, ptr %19, align 8, !tbaa !120
  ret void
}